; Function Attrs: mustprogress nofree norecurse nosync nounwind willreturn memory(write, argmem: readwrite, inaccessiblemem: none) uwtable
define dso_local range(i32 0, 44) i32 @curlx_dyn_setlen(ptr noundef captures(none) %0, i64 noundef %1) local_unnamed_addr #3 {
  %3 = getelementptr inbounds nuw i8, ptr %0, i64 8
  %4 = load i64, ptr %3, align 8, !tbaa !12
  %5 = icmp ugt i64 %1, %4
  br i1 %5, label %9, label %6

6:                                                ; preds = %2
  store i64 %1, ptr %3, align 8, !tbaa !12
  %7 = load ptr, ptr %0, align 8, !tbaa !11
  %8 = getelementptr inbounds nuw i8, ptr %7, i64 %1
  store i8 0, ptr %8, align 1, !tbaa !13
  br label %9

9:                                                ; preds = %2, %6
  %.0 = phi i32 [ 0, %6 ], [ 43, %2 ]
  ret i32 %.0
}